; ModuleID = 'source-C-CXX/42/1818.cpp'
source_filename = "source-C-CXX/42/1818.cpp"
target datalayout = "e-m:e-p270:32:32-p271:32:32-p272:64:64-i64:64-f80:128-n8:16:32:64-S128"
target triple = "x86_64-pc-linux-gnu"

%"class.std::ios_base::Init" = type { i8 }
%"class.std::basic_istream" = type { i32 (...)**, i64, %"class.std::basic_ios" }
%"class.std::basic_ios" = type { %"class.std::ios_base", %"class.std::basic_ostream"*, i8, i8, %"class.std::basic_streambuf"*, %"class.std::ctype"*, %"class.std::num_put"*, %"class.std::num_get"* }
%"class.std::ios_base" = type { i32 (...)**, i64, i64, i32, i32, i32, %"struct.std::ios_base::_Callback_list"*, %"struct.std::ios_base::_Words", [8 x %"struct.std::ios_base::_Words"], i32, %"struct.std::ios_base::_Words"*, %"class.std::locale" }
%"struct.std::ios_base::_Callback_list" = type { %"struct.std::ios_base::_Callback_list"*, void (i32, %"class.std::ios_base"*, i32)*, i32, i32 }
%"struct.std::ios_base::_Words" = type { i8*, i64 }
%"class.std::locale" = type { %"class.std::locale::_Impl"* }
%"class.std::locale::_Impl" = type { i32, %"class.std::locale::facet"**, i64, %"class.std::locale::facet"**, i8** }
%"class.std::locale::facet" = type <{ i32 (...)**, i32, [4 x i8] }>
%"class.std::basic_ostream" = type { i32 (...)**, %"class.std::basic_ios" }
%"class.std::basic_streambuf" = type { i32 (...)**, i8*, i8*, i8*, i8*, i8*, i8*, %"class.std::locale" }
%"class.std::ctype" = type <{ %"class.std::locale::facet.base", [4 x i8], %struct.__locale_struct*, i8, [7 x i8], i32*, i32*, i16*, i8, [256 x i8], [256 x i8], i8, [6 x i8] }>
%"class.std::locale::facet.base" = type <{ i32 (...)**, i32 }>
%struct.__locale_struct = type { [13 x %struct.__locale_data*], i16*, i32*, i32*, [13 x i8*] }
%struct.__locale_data = type opaque
%"class.std::num_put" = type { %"class.std::locale::facet.base", [4 x i8] }
%"class.std::num_get" = type { %"class.std::locale::facet.base", [4 x i8] }

@_ZStL8__ioinit = internal global %"class.std::ios_base::Init" zeroinitializer, align 1
@__dso_handle = external hidden global i8
@_ZSt3cin = external global %"class.std::basic_istream", align 8
@_ZSt4cout = external global %"class.std::basic_ostream", align 8
@.str = private unnamed_addr constant [2 x i8] c" \00", align 1
@llvm.global_ctors = appending global [1 x { i32, void ()*, i8* }] [{ i32, void ()*, i8* } { i32 65535, void ()* @_GLOBAL__sub_I_1818.cpp, i8* null }]

declare void @_ZNSt8ios_base4InitC1Ev(%"class.std::ios_base::Init"* nonnull align 1 dereferenceable(1)) unnamed_addr #0

; Function Attrs: nounwind
declare void @_ZNSt8ios_base4InitD1Ev(%"class.std::ios_base::Init"* nonnull align 1 dereferenceable(1)) unnamed_addr #1

; Function Attrs: nofree nounwind
declare i32 @__cxa_atexit(void (i8*)*, i8*, i8*) local_unnamed_addr #2

; Function Attrs: mustprogress norecurse sspstrong uwtable
define dso_local i32 @main() local_unnamed_addr #3 {
  %1 = alloca i32, align 4
  %2 = bitcast i32* %1 to i8*
  call void @llvm.lifetime.start.p0i8(i64 4, i8* nonnull %2) #7
  %3 = call nonnull align 8 dereferenceable(16) %"class.std::basic_istream"* @_ZNSirsERi(%"class.std::basic_istream"* nonnull align 8 dereferenceable(16) @_ZSt3cin, i32* nonnull align 4 dereferenceable(4) %1)
  %4 = load i32, i32* %1, align 4, !tbaa !5
  %5 = icmp slt i32 %4, 2
  br i1 %5, label %119, label %6

6:                                                ; preds = %0, %113
  %7 = phi i32 [ %118, %113 ], [ 0, %0 ]
  %8 = phi i32 [ %114, %113 ], [ %4, %0 ]
  %9 = phi i32 [ %115, %113 ], [ 1, %0 ]
  %10 = mul nsw i32 %7, -2
  %11 = add i32 %10, -1
  %12 = icmp eq i32 %7, 0
  br i1 %12, label %15, label %13

13:                                               ; preds = %6
  %14 = shl nuw nsw i32 %7, 1
  br label %32

15:                                               ; preds = %6, %32
  %16 = phi i32 [ undef, %6 ], [ %44, %32 ]
  %17 = phi i32 [ 1, %6 ], [ %45, %32 ]
  %18 = phi i32 [ 0, %6 ], [ %44, %32 ]
  %19 = urem i32 %9, %17
  %20 = icmp eq i32 %19, 0
  %21 = zext i1 %20 to i32
  %22 = add nuw nsw i32 %18, %21
  %23 = sub nsw i32 %8, %9
  %24 = icmp slt i32 %23, 1
  br i1 %24, label %113, label %25

25:                                               ; preds = %15
  %26 = add i32 %8, %11
  %27 = and i32 %26, 1
  %28 = sub i32 2, %10
  %29 = icmp eq i32 %8, %28
  br i1 %29, label %64, label %30

30:                                               ; preds = %25
  %31 = and i32 %26, -2
  br label %48

32:                                               ; preds = %32, %13
  %33 = phi i32 [ 1, %13 ], [ %45, %32 ]
  %34 = phi i32 [ 0, %13 ], [ %44, %32 ]
  %35 = phi i32 [ %14, %13 ], [ %46, %32 ]
  %36 = urem i32 %9, %33
  %37 = icmp eq i32 %36, 0
  %38 = zext i1 %37 to i32
  %39 = add nuw nsw i32 %34, %38
  %40 = add nuw nsw i32 %33, 1
  %41 = urem i32 %9, %40
  %42 = icmp eq i32 %41, 0
  %43 = zext i1 %42 to i32
  %44 = add nuw nsw i32 %39, %43
  %45 = add nuw nsw i32 %33, 2
  %46 = add i32 %35, -2
  %47 = icmp eq i32 %46, 0
  br i1 %47, label %15, label %32, !llvm.loop !9

48:                                               ; preds = %48, %30
  %49 = phi i32 [ 1, %30 ], [ %61, %48 ]
  %50 = phi i32 [ 0, %30 ], [ %60, %48 ]
  %51 = phi i32 [ %31, %30 ], [ %62, %48 ]
  %52 = srem i32 %23, %49
  %53 = icmp eq i32 %52, 0
  %54 = zext i1 %53 to i32
  %55 = add nuw nsw i32 %50, %54
  %56 = add nuw i32 %49, 1
  %57 = srem i32 %23, %56
  %58 = icmp eq i32 %57, 0
  %59 = zext i1 %58 to i32
  %60 = add nuw nsw i32 %55, %59
  %61 = add nuw i32 %49, 2
  %62 = add i32 %51, -2
  %63 = icmp eq i32 %62, 0
  br i1 %63, label %64, label %48, !llvm.loop !11

64:                                               ; preds = %48, %25
  %65 = phi i32 [ undef, %25 ], [ %60, %48 ]
  %66 = phi i32 [ 1, %25 ], [ %61, %48 ]
  %67 = phi i32 [ 0, %25 ], [ %60, %48 ]
  %68 = icmp eq i32 %27, 0
  br i1 %68, label %74, label %69

69:                                               ; preds = %64
  %70 = srem i32 %23, %66
  %71 = icmp eq i32 %70, 0
  %72 = zext i1 %71 to i32
  %73 = add nuw nsw i32 %67, %72
  br label %74

74:                                               ; preds = %64, %69
  %75 = phi i32 [ %65, %64 ], [ %73, %69 ]
  %76 = icmp eq i32 %22, 2
  %77 = icmp eq i32 %75, 2
  %78 = select i1 %76, i1 %77, i1 false
  br i1 %78, label %79, label %113

79:                                               ; preds = %74
  %80 = call nonnull align 8 dereferenceable(8) %"class.std::basic_ostream"* @_ZNSolsEi(%"class.std::basic_ostream"* nonnull align 8 dereferenceable(8) @_ZSt4cout, i32 %9)
  %81 = call nonnull align 8 dereferenceable(8) %"class.std::basic_ostream"* @_ZSt16__ostream_insertIcSt11char_traitsIcEERSt13basic_ostreamIT_T0_ES6_PKS3_l(%"class.std::basic_ostream"* nonnull align 8 dereferenceable(8) %80, i8* nonnull getelementptr inbounds ([2 x i8], [2 x i8]* @.str, i64 0, i64 0), i64 1)
  %82 = call nonnull align 8 dereferenceable(8) %"class.std::basic_ostream"* @_ZNSolsEi(%"class.std::basic_ostream"* nonnull align 8 dereferenceable(8) %80, i32 %23)
  %83 = bitcast %"class.std::basic_ostream"* %82 to i8**
  %84 = load i8*, i8** %83, align 8, !tbaa !12
  %85 = getelementptr i8, i8* %84, i64 -24
  %86 = bitcast i8* %85 to i64*
  %87 = load i64, i64* %86, align 8
  %88 = bitcast %"class.std::basic_ostream"* %82 to i8*
  %89 = add nsw i64 %87, 240
  %90 = getelementptr inbounds i8, i8* %88, i64 %89
  %91 = bitcast i8* %90 to %"class.std::ctype"**
  %92 = load %"class.std::ctype"*, %"class.std::ctype"** %91, align 8, !tbaa !14
  %93 = icmp eq %"class.std::ctype"* %92, null
  br i1 %93, label %94, label %95

94:                                               ; preds = %79
  call void @_ZSt16__throw_bad_castv() #8
  unreachable

95:                                               ; preds = %79
  %96 = getelementptr inbounds %"class.std::ctype", %"class.std::ctype"* %92, i64 0, i32 8
  %97 = load i8, i8* %96, align 8, !tbaa !18
  %98 = icmp eq i8 %97, 0
  br i1 %98, label %102, label %99

99:                                               ; preds = %95
  %100 = getelementptr inbounds %"class.std::ctype", %"class.std::ctype"* %92, i64 0, i32 9, i64 10
  %101 = load i8, i8* %100, align 1, !tbaa !20
  br label %108

102:                                              ; preds = %95
  call void @_ZNKSt5ctypeIcE13_M_widen_initEv(%"class.std::ctype"* nonnull align 8 dereferenceable(570) %92)
  %103 = bitcast %"class.std::ctype"* %92 to i8 (%"class.std::ctype"*, i8)***
  %104 = load i8 (%"class.std::ctype"*, i8)**, i8 (%"class.std::ctype"*, i8)*** %103, align 8, !tbaa !12
  %105 = getelementptr inbounds i8 (%"class.std::ctype"*, i8)*, i8 (%"class.std::ctype"*, i8)** %104, i64 6
  %106 = load i8 (%"class.std::ctype"*, i8)*, i8 (%"class.std::ctype"*, i8)** %105, align 8
  %107 = call signext i8 %106(%"class.std::ctype"* nonnull align 8 dereferenceable(570) %92, i8 signext 10)
  br label %108

108:                                              ; preds = %99, %102
  %109 = phi i8 [ %101, %99 ], [ %107, %102 ]
  %110 = call nonnull align 8 dereferenceable(8) %"class.std::basic_ostream"* @_ZNSo3putEc(%"class.std::basic_ostream"* nonnull align 8 dereferenceable(8) %82, i8 signext %109)
  %111 = call nonnull align 8 dereferenceable(8) %"class.std::basic_ostream"* @_ZNSo5flushEv(%"class.std::basic_ostream"* nonnull align 8 dereferenceable(8) %110)
  %112 = load i32, i32* %1, align 4, !tbaa !5
  br label %113

113:                                              ; preds = %15, %108, %74
  %114 = phi i32 [ %112, %108 ], [ %8, %74 ], [ %8, %15 ]
  %115 = add nuw nsw i32 %9, 2
  %116 = sdiv i32 %114, 2
  %117 = icmp sgt i32 %115, %116
  %118 = add i32 %7, 1
  br i1 %117, label %119, label %6, !llvm.loop !21

119:                                              ; preds = %113, %0
  call void @llvm.lifetime.end.p0i8(i64 4, i8* nonnull %2) #7
  ret i32 0
}

; Function Attrs: argmemonly mustprogress nofree nosync nounwind willreturn
declare void @llvm.lifetime.start.p0i8(i64 immarg, i8* nocapture) #4

declare nonnull align 8 dereferenceable(16) %"class.std::basic_istream"* @_ZNSirsERi(%"class.std::basic_istream"* nonnull align 8 dereferenceable(16), i32* nonnull align 4 dereferenceable(4)) local_unnamed_addr #0

declare nonnull align 8 dereferenceable(8) %"class.std::basic_ostream"* @_ZNSolsEi(%"class.std::basic_ostream"* nonnull align 8 dereferenceable(8), i32) local_unnamed_addr #0

; Function Attrs: argmemonly mustprogress nofree nosync nounwind willreturn
declare void @llvm.lifetime.end.p0i8(i64 immarg, i8* nocapture) #4

declare nonnull align 8 dereferenceable(8) %"class.std::basic_ostream"* @_ZSt16__ostream_insertIcSt11char_traitsIcEERSt13basic_ostreamIT_T0_ES6_PKS3_l(%"class.std::basic_ostream"* nonnull align 8 dereferenceable(8), i8*, i64) local_unnamed_addr #0

declare nonnull align 8 dereferenceable(8) %"class.std::basic_ostream"* @_ZNSo3putEc(%"class.std::basic_ostream"* nonnull align 8 dereferenceable(8), i8 signext) local_unnamed_addr #0

declare nonnull align 8 dereferenceable(8) %"class.std::basic_ostream"* @_ZNSo5flushEv(%"class.std::basic_ostream"* nonnull align 8 dereferenceable(8)) local_unnamed_addr #0

; Function Attrs: noreturn
declare void @_ZSt16__throw_bad_castv() local_unnamed_addr #5

declare void @_ZNKSt5ctypeIcE13_M_widen_initEv(%"class.std::ctype"* nonnull align 8 dereferenceable(570)) local_unnamed_addr #0

; Function Attrs: sspstrong uwtable
define internal void @_GLOBAL__sub_I_1818.cpp() #6 section ".text.startup" {
  tail call void @_ZNSt8ios_base4InitC1Ev(%"class.std::ios_base::Init"* nonnull align 1 dereferenceable(1) @_ZStL8__ioinit)
  %1 = tail call i32 @__cxa_atexit(void (i8*)* bitcast (void (%"class.std::ios_base::Init"*)* @_ZNSt8ios_base4InitD1Ev to void (i8*)*), i8* getelementptr inbounds (%"class.std::ios_base::Init", %"class.std::ios_base::Init"* @_ZStL8__ioinit, i64 0, i32 0), i8* nonnull @__dso_handle) #7
  ret void
}


!llvm.module.flags = !{!0, !1, !2, !3}
!llvm.ident = !{!4}

!0 = !{i32 1, !"wchar_size", i32 4}
!1 = !{i32 7, !"PIC Level", i32 2}
!2 = !{i32 7, !"PIE Level", i32 2}
!3 = !{i32 7, !"uwtable", i32 1}
!4 = !{!"clang version 13.0.0"}
!5 = !{!6, !6, i64 0}
!6 = !{!"int", !7, i64 0}
!7 = !{!"omnipotent char", !8, i64 0}
!8 = !{!"Simple C++ TBAA"}
!9 = distinct !{!9, !10}
!10 = !{!"llvm.loop.mustprogress"}
!11 = distinct !{!11, !10}
!12 = !{!13, !13, i64 0}
!13 = !{!"vtable pointer", !8, i64 0}
!14 = !{!15, !16, i64 240}
!15 = !{!"_ZTSSt9basic_iosIcSt11char_traitsIcEE", !16, i64 216, !7, i64 224, !17, i64 225, !16, i64 232, !16, i64 240, !16, i64 248, !16, i64 256}
!16 = !{!"any pointer", !7, i64 0}
!17 = !{!"bool", !7, i64 0}
!18 = !{!19, !7, i64 56}
!19 = !{!"_ZTSSt5ctypeIcE", !16, i64 16, !17, i64 24, !16, i64 32, !16, i64 40, !16, i64 48, !7, i64 56, !7, i64 57, !7, i64 313, !7, i64 569}
!20 = !{!7, !7, i64 0}
!21 = distinct !{!21, !10}
